	.file	"main.cpp"
# GNU C++17 (GCC) version 11.1.0 (x86_64-pc-linux-gnu)
#	compiled by GNU C version 11.1.0, GMP version 6.2.1, MPFR version 4.1.0, MPC version 1.2.1, isl version isl-0.24-GMP

# GGC heuristics: --param ggc-min-expand=100 --param ggc-min-heapsize=131072
# options passed: -mtune=generic -march=x86-64 -g -O2 -std=c++17 -fno-sanitize-recover -fstack-protector -fsanitize=undefined -fsanitize=address
	.text
.Ltext0:
	.globl	__asan_stack_malloc_0
	.section	.rodata.str1.1,"aMS",@progbits,1
.LC0:
	.string	"1 32 4 4 n:36"
	.section	.text.startup,"ax",@progbits
	.p2align 4
	.globl	main
	.type	main, @function
main:
.LASANPC11038:
.LFB11038:
	.file 1 "main.cpp"
	.loc 1 34 12 view -0
	.cfi_startproc
	pushq	%r15	#
	.cfi_def_cfa_offset 16
	.cfi_offset 15, -16
	pushq	%r14	#
	.cfi_def_cfa_offset 24
	.cfi_offset 14, -24
	pushq	%r13	#
	.cfi_def_cfa_offset 32
	.cfi_offset 13, -32
	pushq	%r12	#
	.cfi_def_cfa_offset 40
	.cfi_offset 12, -40
	pushq	%rbp	#
	.cfi_def_cfa_offset 48
	.cfi_offset 6, -48
	pushq	%rbx	#
	.cfi_def_cfa_offset 56
	.cfi_offset 3, -56
	subq	$152, %rsp	#,
	.cfi_def_cfa_offset 208
	leaq	80(%rsp), %rax	#, tmp345
	movq	%rax, 24(%rsp)	# tmp345, %sfp
	movq	%rax, 32(%rsp)	# tmp345, %sfp
	movl	__asan_option_detect_stack_use_after_return(%rip), %eax	# __asan_option_detect_stack_use_after_return,
	testl	%eax, %eax	#
	jne	.L119	#,
.L1:
	.loc 1 36 5 view .LVU1
	.loc 1 37 5 view .LVU2
# main.cpp:34: int main() {
	.loc 1 34 12 is_stmt 0 view .LVU3
	movq	24(%rsp), %rax	# %sfp, tmp345
# main.cpp:37:     cin >> n;
	.loc 1 37 12 view .LVU4
	leaq	_ZSt3cin(%rip), %r13	#, tmp539
# main.cpp:34: int main() {
	.loc 1 34 12 view .LVU5
	leaq	64(%rax), %rdi	#, tmp347
	movq	%rdi, 16(%rsp)	# tmp347, %sfp
	leaq	.LC0(%rip), %rdi	#, tmp570
	movq	%rdi, 8(%rax)	# tmp570,
	leaq	.LASANPC11038(%rip), %rdi	#, tmp572
	movq	$1102416563, (%rax)	#,
	movq	%rdi, 16(%rax)	# tmp572,
	shrq	$3, %rax	#, tmp350
	movq	%rax, 40(%rsp)	# tmp350, %sfp
	movl	$-235802127, 2147450880(%rax)	#,
	movl	$-202116348, 2147450884(%rax)	#,
# main.cpp:37:     cin >> n;
	.loc 1 37 12 view .LVU6
	movq	%r13, %rax	# tmp539, tmp354
	shrq	$3, %rax	#, tmp354
	cmpb	$0, 2147450880(%rax)	#, *_46
	jne	.L120	#,
	movabsq	$-7070675565921424023, %rcx	#, tmp358
	leaq	__ubsan_vptr_type_cache(%rip), %r15	#, tmp543
	movabsq	$-8664976708444, %rdx	#, tmp357
	xorq	_ZSt3cin(%rip), %rdx	# cin._vptr.basic_istream, tmp356
	imulq	%rcx, %rdx	# tmp358, _145
	movq	%rdx, %rax	# _145, tmp359
	xorq	_ZSt3cin(%rip), %rdx	# cin._vptr.basic_istream, tmp360
	salq	$47, %rax	#, tmp359
	xorq	%rdx, %rax	# tmp360, tmp361
	imulq	%rcx, %rax	# tmp358, _18
	movq	%rax, %rdx	# _18, tmp363
	salq	$47, %rdx	#, tmp363
	xorq	%rax, %rdx	# _18, tmp364
	imulq	%rcx, %rdx	# tmp358, _56
	movq	%rdx, %rax	# _56, tmp367
	andl	$127, %eax	#, tmp367
	cmpq	%rdx, (%r15,%rax,8)	# _56, __ubsan_vptr_type_cache[_135]
	jne	.L121	#,
.L6:
	movq	16(%rsp), %rax	# %sfp, tmp347
	movq	%r13, %rdi	# tmp539,
# main.cpp:41:     while (cin >> n) {
	.loc 1 41 19 view .LVU7
	movabsq	$-7070675565921424023, %rbx	#, tmp547
# main.cpp:37:     cin >> n;
	.loc 1 37 12 view .LVU8
	leaq	-32(%rax), %r14	#, tmp542
	movq	%r14, %rsi	# tmp542,
	movq	%r14, %rbp	# tmp542, tmp542
	call	_ZNSirsERi@PLT	#
.LVL0:
# main.cpp:40:     int amazing {0};
	.loc 1 40 9 view .LVU9
	xorl	%r9d, %r9d	# amazing
# main.cpp:38:     int best {0};
	.loc 1 38 9 view .LVU10
	xorl	%r10d, %r10d	# best
# main.cpp:39:     int worst {0};
	.loc 1 39 9 view .LVU11
	movl	$0, 12(%rsp)	#, %sfp
	movl	%r9d, %r12d	# amazing, amazing
	movl	%r10d, %r14d	# best, best
	jmp	.L7	#
.LVL1:
	.p2align 4,,10
	.p2align 3
.L137:
# main.cpp:41:     while (cin >> n) {
	.loc 1 41 19 view .LVU12
	cmpq	%rax, %r8	# _33, _251
	jb	.L27	#,
.L26:
# main.cpp:41:     while (cin >> n) {
	.loc 1 41 19 discriminator 1 view .LVU13
	testq	%r8, %r8	# _251
	je	.L28	#,
	testb	$7, %r8b	#, _251
	jne	.L28	#,
	testq	%r11, %r11	# _10
	js	.L30	#,
# main.cpp:41:     while (cin >> n) {
	.loc 1 41 19 view .LVU14
	cmpq	%rax, %r8	# _33, _251
	jb	.L32	#,
.L31:
# main.cpp:41:     while (cin >> n) {
	.loc 1 41 19 discriminator 1 view .LVU15
	testq	%r11, %r11	# _10
	js	.L33	#,
# main.cpp:41:     while (cin >> n) {
	.loc 1 41 19 view .LVU16
	cmpq	%rax, %r8	# _33, _251
	jb	.L35	#,
.L34:
# main.cpp:41:     while (cin >> n) {
	.loc 1 41 19 discriminator 1 view .LVU17
	movq	%r8, %rdx	# _251, tmp426
	shrq	$3, %rdx	#, tmp426
	cmpb	$0, 2147450880(%rdx)	#, *_238
	jne	.L122	#,
	movabsq	$8135312701535973029, %rsi	#, tmp428
	movq	(%r8), %rcx	# MEM[(struct basic_ios *)_11]._vptr.ios_base, _13
	xorq	%rcx, %rsi	# _13, tmp427
	imulq	%rbx, %rsi	# tmp547, _241
	movq	%rsi, %rdx	# _241, tmp430
	xorq	%rcx, %rsi	# _13, tmp431
	salq	$47, %rdx	#, tmp430
	xorq	%rdx, %rsi	# tmp430, tmp432
	imulq	%rbx, %rsi	# tmp547, _245
	movq	%rsi, %rdx	# _245, tmp434
	salq	$47, %rdx	#, tmp434
	xorq	%rsi, %rdx	# _245, tmp435
	imulq	%rbx, %rdx	# tmp547, _248
	movq	%rdx, %rsi	# _248, tmp438
	andl	$127, %esi	#, tmp438
	cmpq	%rdx, (%r15,%rsi,8)	# _248, __ubsan_vptr_type_cache[_249]
	jne	.L123	#,
.L37:
	testq	%r11, %r11	# _10
	js	.L38	#,
# main.cpp:41:     while (cin >> n) {
	.loc 1 41 19 view .LVU18
	cmpq	%rax, %r8	# _33, _251
	jb	.L40	#,
.L39:
.LVL2:
.LBB42:
.LBI42:
	.file 2 "/usr/include/c++/11.1.0/bits/basic_ios.h"
	.loc 2 117 16 is_stmt 1 discriminator 1 view .LVU19
.LBB43:
.LBI43:
	.loc 2 201 7 discriminator 1 view .LVU20
.LBB44:
.LBI44:
	.loc 2 137 7 discriminator 1 view .LVU21
.LBB45:
# /usr/include/c++/11.1.0/bits/basic_ios.h:138:       { return _M_streambuf_state; }
	.loc 2 138 16 is_stmt 0 discriminator 1 view .LVU22
	movabsq	$-538054256897803493, %rdx	#, tmp442
	xorq	%rcx, %rdx	# _13, tmp441
	imulq	%rbx, %rdx	# tmp547, _256
	movq	%rdx, %rax	# _256, tmp444
	xorq	%rdx, %rcx	# _256, tmp445
	salq	$47, %rax	#, tmp444
	xorq	%rax, %rcx	# tmp444, tmp446
	imulq	%rbx, %rcx	# tmp547, _260
	movq	%rcx, %rdx	# _260, tmp448
	salq	$47, %rdx	#, tmp448
	xorq	%rcx, %rdx	# _260, tmp449
	imulq	%rbx, %rdx	# tmp547, _263
	movq	%rdx, %rax	# _263, tmp452
	andl	$127, %eax	#, tmp452
	cmpq	%rdx, (%r15,%rax,8)	# _263, __ubsan_vptr_type_cache[_264]
	jne	.L124	#,
.LVL3:
.L41:
	.loc 2 138 16 discriminator 1 view .LVU23
	testq	%r8, %r8	# _251
	je	.L42	#,
	testb	$7, %r8b	#, _251
	jne	.L42	#,
	leaq	32(%r8), %rdx	#, _270
	cmpq	$-32, %r8	#, _251
	jnb	.L125	#,
	movq	%rdx, %rax	# _270, tmp457
	shrq	$3, %rax	#, tmp457
	movzbl	2147450880(%rax), %eax	# *_273, _274
	testb	%al, %al	# _274
	je	.L45	#,
	cmpb	$3, %al	#, _274
	jle	.L126	#,
.L45:
.LVL4:
	.loc 2 138 16 discriminator 1 view .LVU24
.LBE45:
.LBE44:
.LBB48:
.LBI48:
	.file 3 "/usr/include/c++/11.1.0/bits/ios_base.h"
	.loc 3 165 3 is_stmt 1 discriminator 1 view .LVU25
.LBB49:
	.loc 3 166 5 discriminator 1 view .LVU26
	.loc 3 166 5 is_stmt 0 discriminator 1 view .LVU27
.LBE49:
.LBE48:
.LBE43:
.LBE42:
# main.cpp:41:     while (cin >> n) {
	.loc 1 41 19 discriminator 1 view .LVU28
	testb	$5, 32(%r8)	#, MEM[(const struct ios_base *)_11]._M_streambuf_state
	jne	.L127	#,
	.loc 1 42 9 is_stmt 1 view .LVU29
# main.cpp:42:         if (!best) {best = worst = n;}
	.loc 1 42 34 is_stmt 0 view .LVU30
	movq	%rbp, %rax	# tmp542, tmp372
	shrq	$3, %rax	#, tmp372
	movzbl	2147450880(%rax), %eax	# *_167, _134
	testb	%al, %al	# _134
	je	.L8	#,
	cmpb	$3, %al	#, _134
	jle	.L128	#,
.L8:
	movq	16(%rsp), %rax	# %sfp, tmp347
	movl	-32(%rax), %eax	# n, worst
# main.cpp:42:         if (!best) {best = worst = n;}
	.loc 1 42 9 view .LVU31
	testl	%r14d, %r14d	# best
	je	.L77	#,
	.loc 1 43 9 is_stmt 1 view .LVU32
	cmpl	%eax, %r14d	# worst, best
	jge	.L10	#,
	.loc 1 43 24 discriminator 1 view .LVU33
.LVL5:
	.loc 1 43 33 discriminator 1 view .LVU34
	movl	%r12d, %edx	# amazing, tmp377
	addl	$1, %edx	#, tmp377
	jo	.L129	#,
	.loc 1 43 33 is_stmt 0 discriminator 1 view .LVU35
	movl	%edx, %r12d	# tmp377, amazing
.LVL6:
	.loc 1 43 33 discriminator 1 view .LVU36
	movl	%eax, %r14d	# worst, best
.LVL7:
.L10:
	.loc 1 44 9 is_stmt 1 view .LVU37
	cmpl	%eax, 12(%rsp)	# worst, %sfp
	jle	.L78	#,
	.loc 1 44 25 discriminator 1 view .LVU38
.LVL8:
	.loc 1 44 35 discriminator 1 view .LVU39
	movl	%r12d, %edx	# amazing, tmp380
	addl	$1, %edx	#, tmp380
	jo	.L130	#,
	movl	%edx, %r12d	# tmp380, amazing
.LVL9:
.L9:
# main.cpp:42:         if (!best) {best = worst = n;}
	.loc 1 42 26 is_stmt 0 view .LVU40
	movl	%eax, 12(%rsp)	# worst, %sfp
.L7:
.LVL10:
	.loc 1 41 19 is_stmt 1 view .LVU41
	movq	%r13, %rax	# tmp539, tmp383
	shrq	$3, %rax	#, tmp383
	cmpb	$0, 2147450880(%rax)	#, *_180
	jne	.L131	#,
	movabsq	$-8664976708444, %rdx	#, tmp385
	xorq	0(%r13), %rdx	# cin._vptr.basic_istream, tmp385
	imulq	%rbx, %rdx	# tmp547, _192
	movq	%rdx, %rax	# _192, tmp388
	xorq	0(%r13), %rdx	# cin._vptr.basic_istream, tmp389
	salq	$47, %rax	#, tmp388
	xorq	%rdx, %rax	# tmp389, tmp390
	imulq	%rbx, %rax	# tmp547, _124
	movq	%rax, %rdx	# _124, tmp392
	salq	$47, %rdx	#, tmp392
	xorq	%rax, %rdx	# _124, tmp393
	imulq	%rbx, %rdx	# tmp547, _77
	movq	%rdx, %rax	# _77, tmp396
	andl	$127, %eax	#, tmp396
	cmpq	%rdx, (%r15,%rax,8)	# _77, __ubsan_vptr_type_cache[_85]
	jne	.L132	#,
.L16:
	movq	%rbp, %rsi	# tmp542,
	movq	%r13, %rdi	# tmp539,
	call	_ZNSirsERi@PLT	#
.LVL11:
	testq	%rax, %rax	# _33
	je	.L17	#,
# main.cpp:41:     while (cin >> n) {
	.loc 1 41 19 is_stmt 0 discriminator 1 view .LVU42
	testb	$7, %al	#, _33
	jne	.L17	#,
	movq	%rax, %rdx	# _33, tmp403
	shrq	$3, %rdx	#, tmp403
	cmpb	$0, 2147450880(%rdx)	#, *_88
	jne	.L133	#,
	movabsq	$-8664976708444, %rdx	#, tmp404
	movq	(%rax), %rcx	# _33->_vptr.basic_istream, _6
	xorq	%rcx, %rdx	# _6, tmp404
	imulq	%rbx, %rdx	# tmp547, _98
	movq	%rdx, %rsi	# _98, tmp407
	xorq	%rcx, %rdx	# _6, tmp408
	salq	$47, %rsi	#, tmp407
	xorq	%rdx, %rsi	# tmp408, tmp409
	imulq	%rbx, %rsi	# tmp547, _131
	movq	%rsi, %rdx	# _131, tmp411
	salq	$47, %rdx	#, tmp411
	xorq	%rsi, %rdx	# _131, tmp412
	imulq	%rbx, %rdx	# tmp547, _209
	movq	%rdx, %rsi	# _209, tmp415
	andl	$127, %esi	#, tmp415
	cmpq	%rdx, (%r15,%rsi,8)	# _209, __ubsan_vptr_type_cache[_210]
	jne	.L134	#,
.L20:
	leaq	-24(%rcx), %rdx	#, _212
	cmpq	$24, %rcx	#, _6
	jb	.L135	#,
	movq	%rdx, %rsi	# _212, tmp420
	testq	%rdx, %rdx	# _212
	je	.L22	#,
	testb	$7, %dl	#, _212
	jne	.L22	#,
	shrq	$3, %rsi	#, tmp420
	cmpb	$0, 2147450880(%rsi)	#, *_219
	jne	.L136	#,
	movq	-24(%rcx), %r11	# MEM[(long int *)_6 + -24B], _10
	leaq	(%rax,%r11), %r8	#, _251
	testq	%r11, %r11	# _10
	jns	.L137	#,
	cmpq	%rax, %r8	# _33, _251
	jbe	.L26	#,
.L27:
# main.cpp:41:     while (cin >> n) {
	.loc 1 41 19 view .LVU43
	movq	%r8, %rdx	# _251,
	movq	%rax, %rsi	# _33,
	leaq	.Lubsan_data1066(%rip), %rdi	#, tmp421
	call	__ubsan_handle_pointer_overflow_abort@PLT	#
.LVL12:
	.p2align 4,,10
	.p2align 3
.L38:
# main.cpp:41:     while (cin >> n) {
	.loc 1 41 19 discriminator 1 view .LVU44
	cmpq	%rax, %r8	# _33, _251
	jbe	.L39	#,
.L40:
# main.cpp:41:     while (cin >> n) {
	.loc 1 41 19 view .LVU45
	movq	%r8, %rdx	# _251,
	movq	%rax, %rsi	# _33,
	leaq	.Lubsan_data1071(%rip), %rdi	#, tmp440
	call	__ubsan_handle_pointer_overflow_abort@PLT	#
.LVL13:
	.p2align 4,,10
	.p2align 3
.L30:
# main.cpp:41:     while (cin >> n) {
	.loc 1 41 19 discriminator 1 view .LVU46
	cmpq	%rax, %r8	# _33, _251
	jbe	.L31	#,
.L32:
# main.cpp:41:     while (cin >> n) {
	.loc 1 41 19 view .LVU47
	movq	%r8, %rdx	# _251,
	movq	%rax, %rsi	# _33,
	leaq	.Lubsan_data1068(%rip), %rdi	#, tmp424
	call	__ubsan_handle_pointer_overflow_abort@PLT	#
.LVL14:
	.p2align 4,,10
	.p2align 3
.L33:
# main.cpp:41:     while (cin >> n) {
	.loc 1 41 19 discriminator 1 view .LVU48
	cmpq	%rax, %r8	# _33, _251
	jbe	.L34	#,
.L35:
# main.cpp:41:     while (cin >> n) {
	.loc 1 41 19 view .LVU49
	movq	%r8, %rdx	# _251,
	movq	%rax, %rsi	# _33,
	leaq	.Lubsan_data1069(%rip), %rdi	#, tmp425
	call	__ubsan_handle_pointer_overflow_abort@PLT	#
.LVL15:
	.p2align 4,,10
	.p2align 3
.L77:
# main.cpp:42:         if (!best) {best = worst = n;}
	.loc 1 42 26 view .LVU50
	movl	%eax, %r14d	# worst, best
.LVL16:
	.loc 1 42 26 view .LVU51
	jmp	.L9	#
.LVL17:
	.p2align 4,,10
	.p2align 3
.L127:
# main.cpp:46:     cout << amazing << endl;
	.loc 1 46 13 view .LVU52
	leaq	_ZSt4cout(%rip), %rbp	#, tmp545
	movl	%r12d, %r9d	# amazing, amazing
	.loc 1 46 5 is_stmt 1 view .LVU53
# main.cpp:46:     cout << amazing << endl;
	.loc 1 46 13 is_stmt 0 view .LVU54
	movq	%rbp, %rax	# tmp545, tmp464
	shrq	$3, %rax	#, tmp464
	cmpb	$0, 2147450880(%rax)	#, *_281
	jne	.L138	#,
.LVL18:
	.loc 1 46 13 view .LVU55
	movabsq	$-7070675565921424023, %rsi	#, tmp468
	movabsq	$-8638671864419, %rdx	#, tmp467
	xorq	_ZSt4cout(%rip), %rdx	# cout._vptr.basic_ostream, tmp466
	imulq	%rsi, %rdx	# tmp468, _284
	movq	%rdx, %rax	# _284, tmp469
	xorq	_ZSt4cout(%rip), %rdx	# cout._vptr.basic_ostream, tmp470
	salq	$47, %rax	#, tmp469
	xorq	%rdx, %rax	# tmp470, tmp471
	imulq	%rsi, %rax	# tmp468, _288
	movq	%rax, %rdx	# _288, tmp473
	salq	$47, %rdx	#, tmp473
	xorq	%rax, %rdx	# _288, tmp474
	imulq	%rsi, %rdx	# tmp468, _291
	movq	%rdx, %rax	# _291, tmp477
	andl	$127, %eax	#, tmp477
	cmpq	%rdx, (%r15,%rax,8)	# _291, __ubsan_vptr_type_cache[_292]
	jne	.L139	#,
.LVL19:
.L48:
	.loc 1 46 13 view .LVU56
	movq	%rbp, %rdi	# tmp545,
	movl	%r9d, %esi	# amazing,
	call	_ZNSolsEi@PLT	#
.LVL20:
	movq	%rax, %rbp	# tmp551, _42
# main.cpp:46:     cout << amazing << endl;
	.loc 1 46 24 view .LVU57
	testq	%rax, %rax	# _42
	je	.L49	#,
# main.cpp:46:     cout << amazing << endl;
	.loc 1 46 24 discriminator 1 view .LVU58
	testb	$7, %al	#, _42
	jne	.L49	#,
	shrq	$3, %rax	#, tmp483
	cmpb	$0, 2147450880(%rax)	#, *_299
	jne	.L140	#,
	movabsq	$-8638671864419, %rax	#, tmp485
	movq	0(%rbp), %r12	# _42->_vptr.basic_ostream, _16
.LVL21:
	.loc 1 46 24 discriminator 1 view .LVU59
	movabsq	$-7070675565921424023, %rsi	#, tmp486
	xorq	%r12, %rax	# _16, tmp484
	imulq	%rsi, %rax	# tmp486, _302
	movq	%rax, %rdx	# _302, tmp487
	xorq	%r12, %rax	# _16, tmp488
	salq	$47, %rdx	#, tmp487
	xorq	%rdx, %rax	# tmp487, tmp489
	imulq	%rsi, %rax	# tmp486, _306
	movq	%rax, %rdx	# _306, tmp491
	salq	$47, %rdx	#, tmp491
	xorq	%rax, %rdx	# _306, tmp492
	imulq	%rsi, %rdx	# tmp486, _309
	movq	%rdx, %rax	# _309, tmp495
	andl	$127, %eax	#, tmp495
	cmpq	%rdx, (%r15,%rax,8)	# _309, __ubsan_vptr_type_cache[_310]
	jne	.L141	#,
.L52:
.LVL22:
.LBB54:
.LBI54:
	.file 4 "/usr/include/c++/11.1.0/ostream"
	.loc 4 108 7 is_stmt 1 discriminator 1 view .LVU60
.LBB55:
.LBI55:
	.loc 4 681 5 discriminator 1 view .LVU61
.LBB56:
# /usr/include/c++/11.1.0/ostream:682:     { return flush(__os.put(__os.widen('\n'))); }
	.loc 4 682 39 is_stmt 0 discriminator 1 view .LVU62
	leaq	-24(%r12), %rdx	#, _312
	cmpq	$24, %r12	#, _16
	jb	.L142	#,
	testq	%rdx, %rdx	# _312
	je	.L54	#,
	testb	$7, %dl	#, _312
	jne	.L54	#,
	movq	%rdx, %rax	# _312, tmp500
	shrq	$3, %rax	#, tmp500
	cmpb	$0, 2147450880(%rax)	#, *_319
	jne	.L143	#,
	movq	-24(%r12), %rbx	# MEM[(long int *)_16 + -24B], _139
	leaq	0(%rbp,%rbx), %r12	#, _351
	testq	%rbx, %rbx	# _139
	js	.L57	#,
# /usr/include/c++/11.1.0/ostream:682:     { return flush(__os.put(__os.widen('\n'))); }
	.loc 4 682 39 view .LVU63
	cmpq	%rbp, %r12	# _42, _351
	jb	.L59	#,
.L58:
# /usr/include/c++/11.1.0/ostream:682:     { return flush(__os.put(__os.widen('\n'))); }
	.loc 4 682 39 discriminator 1 view .LVU64
	testq	%r12, %r12	# _351
	je	.L60	#,
	testb	$7, %r12b	#, _351
	jne	.L60	#,
	testq	%rbx, %rbx	# _139
	js	.L62	#,
# /usr/include/c++/11.1.0/ostream:682:     { return flush(__os.put(__os.widen('\n'))); }
	.loc 4 682 39 view .LVU65
	cmpq	%rbp, %r12	# _42, _351
	jb	.L64	#,
.L63:
# /usr/include/c++/11.1.0/ostream:682:     { return flush(__os.put(__os.widen('\n'))); }
	.loc 4 682 39 discriminator 1 view .LVU66
	testq	%rbx, %rbx	# _139
	js	.L65	#,
# /usr/include/c++/11.1.0/ostream:682:     { return flush(__os.put(__os.widen('\n'))); }
	.loc 4 682 39 view .LVU67
	cmpq	%rbp, %r12	# _42, _351
	jb	.L67	#,
.L66:
# /usr/include/c++/11.1.0/ostream:682:     { return flush(__os.put(__os.widen('\n'))); }
	.loc 4 682 39 discriminator 1 view .LVU68
	movq	%r12, %rax	# _351, tmp506
	shrq	$3, %rax	#, tmp506
	cmpb	$0, 2147450880(%rax)	#, *_338
	jne	.L144	#,
	movabsq	$-7070675565921424023, %rsi	#, tmp509
	movabsq	$8135312701535973029, %rdx	#, tmp508
	xorq	(%r12), %rdx	# _140->_vptr.ios_base, tmp507
	imulq	%rsi, %rdx	# tmp509, _341
	movq	%rdx, %rax	# _341, tmp510
	xorq	(%r12), %rdx	# _140->_vptr.ios_base, tmp511
	salq	$47, %rax	#, tmp510
	xorq	%rdx, %rax	# tmp511, tmp512
	imulq	%rsi, %rax	# tmp509, _345
	movq	%rax, %rdx	# _345, tmp514
	salq	$47, %rdx	#, tmp514
	xorq	%rax, %rdx	# _345, tmp515
	imulq	%rsi, %rdx	# tmp509, _348
	movq	%rdx, %rax	# _348, tmp518
	andl	$127, %eax	#, tmp518
	cmpq	%rdx, (%r15,%rax,8)	# _348, __ubsan_vptr_type_cache[_349]
	jne	.L145	#,
.L69:
	testq	%rbx, %rbx	# _139
	js	.L70	#,
# /usr/include/c++/11.1.0/ostream:682:     { return flush(__os.put(__os.widen('\n'))); }
	.loc 4 682 39 view .LVU69
	cmpq	%rbp, %r12	# _42, _351
	jb	.L72	#,
.L71:
# /usr/include/c++/11.1.0/ostream:682:     { return flush(__os.put(__os.widen('\n'))); }
	.loc 4 682 39 discriminator 1 view .LVU70
	movl	$10, %esi	#,
	movq	%r12, %rdi	# _351,
	call	_ZNKSt9basic_iosIcSt11char_traitsIcEE5widenEc@PLT	#
.LVL23:
# /usr/include/c++/11.1.0/ostream:682:     { return flush(__os.put(__os.widen('\n'))); }
	.loc 4 682 19 discriminator 1 view .LVU71
	movq	%rbp, %rdi	# _42,
	movsbl	%al, %esi	# tmp552, _148
	call	_ZNSo3putEc@PLT	#
.LVL24:
	movq	%rax, %rbp	# tmp553, _150
.LVL25:
.LBB57:
.LBI57:
	.loc 4 703 5 is_stmt 1 discriminator 1 view .LVU72
.LBB58:
# /usr/include/c++/11.1.0/ostream:704:     { return __os.flush(); }
	.loc 4 704 24 is_stmt 0 discriminator 1 view .LVU73
	testq	%rax, %rax	# _150
	je	.L73	#,
# /usr/include/c++/11.1.0/ostream:704:     { return __os.flush(); }
	.loc 4 704 24 view .LVU74
	testb	$7, %al	#, _150
	jne	.L73	#,
	shrq	$3, %rax	#, tmp524
.LVL26:
	.loc 4 704 24 view .LVU75
	cmpb	$0, 2147450880(%rax)	#, *_360
	jne	.L146	#,
	movabsq	$-7070675565921424023, %rsi	#, tmp527
	movabsq	$-8638671864419, %rdx	#, tmp526
	xorq	0(%rbp), %rdx	# _150->_vptr.basic_ostream, tmp525
	imulq	%rsi, %rdx	# tmp527, _363
	movq	%rdx, %rax	# _363, tmp528
	xorq	0(%rbp), %rdx	# _150->_vptr.basic_ostream, tmp529
	salq	$47, %rax	#, tmp528
	xorq	%rdx, %rax	# tmp529, tmp530
	imulq	%rsi, %rax	# tmp527, _367
	movq	%rax, %rdx	# _367, tmp532
	salq	$47, %rdx	#, tmp532
	xorq	%rax, %rdx	# _367, tmp533
	imulq	%rsi, %rdx	# tmp527, _370
	movq	%rdx, %rax	# _370, tmp536
	andl	$127, %eax	#, tmp536
	cmpq	%rdx, (%r15,%rax,8)	# _370, __ubsan_vptr_type_cache[_371]
	jne	.L147	#,
.L76:
	movq	%rbp, %rdi	# _150,
	call	_ZNSo5flushEv@PLT	#
.LVL27:
	.loc 4 704 24 view .LVU76
.LBE58:
.LBE57:
.LBE56:
.LBE55:
.LBE54:
# main.cpp:34: int main() {
	.loc 1 34 12 view .LVU77
	movq	24(%rsp), %rdi	# %sfp, tmp345
	cmpq	%rdi, 32(%rsp)	# tmp345, %sfp
	jne	.L148	#,
	movq	40(%rsp), %rax	# %sfp, tmp350
	movq	$0, 2147450880(%rax)	#,
.L3:
# main.cpp:47: }
	.loc 1 47 1 view .LVU78
	addq	$152, %rsp	#,
	.cfi_remember_state
	.cfi_def_cfa_offset 56
	xorl	%eax, %eax	#
	popq	%rbx	#
	.cfi_def_cfa_offset 48
	popq	%rbp	#
	.cfi_def_cfa_offset 40
	popq	%r12	#
	.cfi_def_cfa_offset 32
	popq	%r13	#
	.cfi_def_cfa_offset 24
	popq	%r14	#
	.cfi_def_cfa_offset 16
.LVL28:
	.loc 1 47 1 view .LVU79
	popq	%r15	#
	.cfi_def_cfa_offset 8
	ret	
.LVL29:
	.p2align 4,,10
	.p2align 3
.L70:
	.cfi_restore_state
.LBB75:
.LBB69:
.LBB63:
# /usr/include/c++/11.1.0/ostream:682:     { return flush(__os.put(__os.widen('\n'))); }
	.loc 4 682 39 discriminator 1 view .LVU80
	cmpq	%rbp, %r12	# _42, _351
	jbe	.L71	#,
.L72:
# /usr/include/c++/11.1.0/ostream:682:     { return flush(__os.put(__os.widen('\n'))); }
	.loc 4 682 39 view .LVU81
	movq	%r12, %rdx	# _351,
	movq	%rbp, %rsi	# _42,
	leaq	.Lubsan_data1085(%rip), %rdi	#, tmp520
	call	__ubsan_handle_pointer_overflow_abort@PLT	#
.LVL30:
	.p2align 4,,10
	.p2align 3
.L65:
# /usr/include/c++/11.1.0/ostream:682:     { return flush(__os.put(__os.widen('\n'))); }
	.loc 4 682 39 discriminator 1 view .LVU82
	cmpq	%rbp, %r12	# _42, _351
	jbe	.L66	#,
.L67:
# /usr/include/c++/11.1.0/ostream:682:     { return flush(__os.put(__os.widen('\n'))); }
	.loc 4 682 39 view .LVU83
	movq	%r12, %rdx	# _351,
	movq	%rbp, %rsi	# _42,
	leaq	.Lubsan_data1083(%rip), %rdi	#, tmp505
	call	__ubsan_handle_pointer_overflow_abort@PLT	#
.LVL31:
	.p2align 4,,10
	.p2align 3
.L62:
# /usr/include/c++/11.1.0/ostream:682:     { return flush(__os.put(__os.widen('\n'))); }
	.loc 4 682 39 discriminator 1 view .LVU84
	cmpq	%rbp, %r12	# _42, _351
	jbe	.L63	#,
.L64:
# /usr/include/c++/11.1.0/ostream:682:     { return flush(__os.put(__os.widen('\n'))); }
	.loc 4 682 39 view .LVU85
	movq	%r12, %rdx	# _351,
	movq	%rbp, %rsi	# _42,
	leaq	.Lubsan_data1082(%rip), %rdi	#, tmp504
	call	__ubsan_handle_pointer_overflow_abort@PLT	#
.LVL32:
	.p2align 4,,10
	.p2align 3
.L57:
# /usr/include/c++/11.1.0/ostream:682:     { return flush(__os.put(__os.widen('\n'))); }
	.loc 4 682 39 discriminator 1 view .LVU86
	cmpq	%rbp, %r12	# _42, _351
	jbe	.L58	#,
.L59:
# /usr/include/c++/11.1.0/ostream:682:     { return flush(__os.put(__os.widen('\n'))); }
	.loc 4 682 39 view .LVU87
	movq	%r12, %rdx	# _351,
	movq	%rbp, %rsi	# _42,
	leaq	.Lubsan_data1080(%rip), %rdi	#, tmp501
	call	__ubsan_handle_pointer_overflow_abort@PLT	#
.LVL33:
.L22:
	.loc 4 682 39 view .LVU88
.LBE63:
.LBE69:
.LBE75:
# main.cpp:41:     while (cin >> n) {
	.loc 1 41 19 view .LVU89
	leaq	.Lubsan_data1065(%rip), %rdi	#, tmp419
	call	__ubsan_handle_type_mismatch_v1_abort@PLT	#
.LVL34:
.L135:
	movq	%rcx, %rsi	# _6,
	leaq	.Lubsan_data1064(%rip), %rdi	#, tmp417
	call	__ubsan_handle_pointer_overflow_abort@PLT	#
.LVL35:
.L134:
	movq	%rax, %rsi	# _33,
	leaq	.Lubsan_data1063(%rip), %rdi	#,
	movq	%rcx, 56(%rsp)	# _6, %sfp
	movq	%rax, 48(%rsp)	# _33, %sfp
	call	__ubsan_handle_dynamic_type_cache_miss_abort@PLT	#
.LVL36:
	movq	56(%rsp), %rcx	# %sfp, _6
	movq	48(%rsp), %rax	# %sfp, _33
	jmp	.L20	#
.L133:
	movq	%rax, %rdi	# _33,
	call	__asan_report_load8@PLT	#
.LVL37:
.L17:
	movq	%rax, %rsi	# _33,
	leaq	.Lubsan_data1062(%rip), %rdi	#, tmp402
	call	__ubsan_handle_type_mismatch_v1_abort@PLT	#
.LVL38:
.L132:
	movq	%r13, %rsi	# tmp539,
	leaq	.Lubsan_data1061(%rip), %rdi	#,
	call	__ubsan_handle_dynamic_type_cache_miss_abort@PLT	#
.LVL39:
	jmp	.L16	#
.L131:
	movq	%r13, %rdi	# tmp539,
	call	__asan_report_load8@PLT	#
.LVL40:
.L124:
.LBB76:
.LBB52:
.LBB50:
.LBB46:
# /usr/include/c++/11.1.0/bits/basic_ios.h:138:       { return _M_streambuf_state; }
	.loc 2 138 16 view .LVU90
	movq	%r8, %rsi	# _251,
	leaq	.Lubsan_data1072(%rip), %rdi	#, tmp453
	movq	%r8, 48(%rsp)	# _251, %sfp
	call	__ubsan_handle_dynamic_type_cache_miss_abort@PLT	#
.LVL41:
	.loc 2 138 16 view .LVU91
	movq	48(%rsp), %r8	# %sfp, _251
	jmp	.L41	#
.LVL42:
.L28:
	.loc 2 138 16 view .LVU92
.LBE46:
.LBE50:
.LBE52:
.LBE76:
# main.cpp:41:     while (cin >> n) {
	.loc 1 41 19 view .LVU93
	movq	%r8, %rsi	# _251,
	leaq	.Lubsan_data1067(%rip), %rdi	#, tmp423
	call	__ubsan_handle_type_mismatch_v1_abort@PLT	#
.LVL43:
.L136:
	movq	%rdx, %rdi	# _212,
	call	__asan_report_load8@PLT	#
.LVL44:
.L123:
	movq	%r8, %rsi	# _251,
	leaq	.Lubsan_data1070(%rip), %rdi	#, tmp439
	movq	%rax, 72(%rsp)	# _33, %sfp
	movq	%rcx, 64(%rsp)	# _13, %sfp
	movq	%r11, 56(%rsp)	# _10, %sfp
	movq	%r8, 48(%rsp)	# _251, %sfp
	call	__ubsan_handle_dynamic_type_cache_miss_abort@PLT	#
.LVL45:
	movq	72(%rsp), %rax	# %sfp, _33
	movq	64(%rsp), %rcx	# %sfp, _13
	movq	56(%rsp), %r11	# %sfp, _10
	movq	48(%rsp), %r8	# %sfp, _251
	jmp	.L37	#
.L122:
	movq	%r8, %rdi	# _251,
	call	__asan_report_load8@PLT	#
.LVL46:
.L126:
.LBB77:
.LBB53:
.LBB51:
.LBB47:
# /usr/include/c++/11.1.0/bits/basic_ios.h:138:       { return _M_streambuf_state; }
	.loc 2 138 16 view .LVU94
	movq	%rdx, %rdi	# _270,
	call	__asan_report_load4@PLT	#
.LVL47:
.L125:
	movq	%r8, %rsi	# _251,
	leaq	.Lubsan_data1074(%rip), %rdi	#, tmp456
	call	__ubsan_handle_pointer_overflow_abort@PLT	#
.LVL48:
.L42:
	movq	%r8, %rsi	# _251,
	leaq	.Lubsan_data1073(%rip), %rdi	#, tmp455
	call	__ubsan_handle_type_mismatch_v1_abort@PLT	#
.LVL49:
.L128:
	.loc 2 138 16 view .LVU95
.LBE47:
.LBE51:
.LBE53:
.LBE77:
# main.cpp:42:         if (!best) {best = worst = n;}
	.loc 1 42 34 view .LVU96
	movq	%rbp, %rdi	# tmp542,
	call	__asan_report_load4@PLT	#
.LVL50:
.L130:
# main.cpp:44:         if (n < worst) {worst = n;++amazing;}
	.loc 1 44 35 discriminator 1 view .LVU97
	movslq	%r12d, %rsi	# amazing,
	movl	$1, %edx	#,
	leaq	.Lubsan_data1089(%rip), %rdi	#, tmp382
	call	__ubsan_handle_add_overflow_abort@PLT	#
.LVL51:
.L129:
# main.cpp:43:         if (n > best) {best = n;++amazing;}
	.loc 1 43 33 discriminator 1 view .LVU98
	movslq	%r12d, %rsi	# amazing,
	movl	$1, %edx	#,
	leaq	.Lubsan_data1088(%rip), %rdi	#, tmp379
	call	__ubsan_handle_add_overflow_abort@PLT	#
.LVL52:
.L145:
.LBB78:
.LBB70:
.LBB64:
# /usr/include/c++/11.1.0/ostream:682:     { return flush(__os.put(__os.widen('\n'))); }
	.loc 4 682 39 view .LVU99
	movq	%r12, %rsi	# _351,
	leaq	.Lubsan_data1084(%rip), %rdi	#, tmp519
	call	__ubsan_handle_dynamic_type_cache_miss_abort@PLT	#
.LVL53:
	jmp	.L69	#
.LVL54:
.L138:
	.loc 4 682 39 view .LVU100
.LBE64:
.LBE70:
.LBE78:
# main.cpp:46:     cout << amazing << endl;
	.loc 1 46 13 view .LVU101
	movq	%rbp, %rdi	# tmp545,
	call	__asan_report_load8@PLT	#
.LVL55:
.L144:
.LBB79:
.LBB71:
.LBB65:
# /usr/include/c++/11.1.0/ostream:682:     { return flush(__os.put(__os.widen('\n'))); }
	.loc 4 682 39 view .LVU102
	movq	%r12, %rdi	# _351,
	call	__asan_report_load8@PLT	#
.LVL56:
.L140:
	.loc 4 682 39 view .LVU103
.LBE65:
.LBE71:
.LBE79:
# main.cpp:46:     cout << amazing << endl;
	.loc 1 46 24 view .LVU104
	movq	%rbp, %rdi	# _42,
	call	__asan_report_load8@PLT	#
.LVL57:
.L49:
	movq	%rbp, %rsi	# _42,
	leaq	.Lubsan_data1076(%rip), %rdi	#, tmp482
	call	__ubsan_handle_type_mismatch_v1_abort@PLT	#
.LVL58:
.L139:
# main.cpp:46:     cout << amazing << endl;
	.loc 1 46 13 view .LVU105
	movq	%rbp, %rsi	# tmp545,
	leaq	.Lubsan_data1075(%rip), %rdi	#, tmp479
	movl	%r12d, 12(%rsp)	# amazing, %sfp
.LVL59:
	.loc 1 46 13 view .LVU106
	call	__ubsan_handle_dynamic_type_cache_miss_abort@PLT	#
.LVL60:
	.loc 1 46 13 view .LVU107
	movl	12(%rsp), %r9d	# %sfp, amazing
	jmp	.L48	#
.LVL61:
.L141:
# main.cpp:46:     cout << amazing << endl;
	.loc 1 46 24 view .LVU108
	movq	%rbp, %rsi	# _42,
	leaq	.Lubsan_data1077(%rip), %rdi	#, tmp496
	call	__ubsan_handle_dynamic_type_cache_miss_abort@PLT	#
.LVL62:
	jmp	.L52	#
.LVL63:
.L119:
# main.cpp:34: int main() {
	.loc 1 34 12 view .LVU109
	movl	$64, %edi	#,
	call	__asan_stack_malloc_0@PLT	#
.LVL64:
	testq	%rax, %rax	#
	cmove	24(%rsp), %rax	# %sfp,, tmp564
	movq	%rax, 24(%rsp)	# tmp564, %sfp
	jmp	.L1	#
.LVL65:
.L148:
	.loc 1 34 12 view .LVU110
	movq	$1172321806, (%rdi)	#,
	movq	%rdi, %rax	# tmp345, tmp345
	movq	40(%rsp), %rdi	# %sfp, tmp350
	movabsq	$-723401728380766731, %rbx	#, tmp626
	movq	%rbx, 2147450880(%rdi)	# tmp626,
	movq	56(%rax), %rax	#, tmp352
	movb	$0, (%rax)	#,
	jmp	.L3	#
.LVL66:
.L147:
.LBB80:
.LBB72:
.LBB66:
.LBB61:
.LBB59:
# /usr/include/c++/11.1.0/ostream:704:     { return __os.flush(); }
	.loc 4 704 24 view .LVU111
	movq	%rbp, %rsi	# _150,
	leaq	.Lubsan_data1087(%rip), %rdi	#, tmp537
	call	__ubsan_handle_dynamic_type_cache_miss_abort@PLT	#
.LVL67:
	jmp	.L76	#
.LVL68:
.L143:
	.loc 4 704 24 view .LVU112
.LBE59:
.LBE61:
# /usr/include/c++/11.1.0/ostream:682:     { return flush(__os.put(__os.widen('\n'))); }
	.loc 4 682 39 view .LVU113
	movq	%rdx, %rdi	# _312,
	call	__asan_report_load8@PLT	#
.LVL69:
.L121:
	.loc 4 682 39 view .LVU114
.LBE66:
.LBE72:
.LBE80:
# main.cpp:37:     cin >> n;
	.loc 1 37 12 view .LVU115
	movq	%r13, %rsi	# tmp539,
	leaq	.Lubsan_data1060(%rip), %rdi	#, tmp369
	call	__ubsan_handle_dynamic_type_cache_miss_abort@PLT	#
.LVL70:
	jmp	.L6	#
.LVL71:
.L146:
.LBB81:
.LBB73:
.LBB67:
.LBB62:
.LBB60:
# /usr/include/c++/11.1.0/ostream:704:     { return __os.flush(); }
	.loc 4 704 24 view .LVU116
	movq	%rbp, %rdi	# _150,
	call	__asan_report_load8@PLT	#
.LVL72:
.L73:
	.loc 4 704 24 view .LVU117
	movq	%rbp, %rsi	# _150,
	leaq	.Lubsan_data1086(%rip), %rdi	#, tmp523
	call	__ubsan_handle_type_mismatch_v1_abort@PLT	#
.LVL73:
.L120:
	.loc 4 704 24 view .LVU118
.LBE60:
.LBE62:
.LBE67:
.LBE73:
.LBE81:
# main.cpp:37:     cin >> n;
	.loc 1 37 12 view .LVU119
	movq	%r13, %rdi	# tmp539,
	call	__asan_report_load8@PLT	#
.LVL74:
.L60:
.LBB82:
.LBB74:
.LBB68:
# /usr/include/c++/11.1.0/ostream:682:     { return flush(__os.put(__os.widen('\n'))); }
	.loc 4 682 39 view .LVU120
	movq	%r12, %rsi	# _351,
	leaq	.Lubsan_data1081(%rip), %rdi	#, tmp503
	call	__ubsan_handle_type_mismatch_v1_abort@PLT	#
.LVL75:
.L54:
	movq	%rdx, %rsi	# _312,
	leaq	.Lubsan_data1079(%rip), %rdi	#, tmp499
	call	__ubsan_handle_type_mismatch_v1_abort@PLT	#
.LVL76:
.L142:
	.loc 4 682 39 view .LVU121
	movq	%r12, %rsi	# _16,
	leaq	.Lubsan_data1078(%rip), %rdi	#, tmp497
	call	__ubsan_handle_pointer_overflow_abort@PLT	#
.LVL77:
.L78:
	.loc 4 682 39 view .LVU122
.LBE68:
.LBE74:
.LBE82:
	movl	12(%rsp), %eax	# %sfp, worst
	jmp	.L9	#
	.cfi_endproc
.LFE11038:
	.size	main, .-main
	.section	.rodata.str1.1
.LC1:
	.string	"main.cpp"
	.section	.text.startup
	.p2align 4
	.type	_GLOBAL__sub_I_main, @function
_GLOBAL__sub_I_main:
.LASANPC12733:
.LFB12733:
	.loc 1 47 1 is_stmt 1 view -0
	.cfi_startproc
.LBB85:
.LBI85:
	.loc 1 47 1 view .LVU124
.LVL78:
	.loc 1 47 1 is_stmt 0 view .LVU125
.LBE85:
	pushq	%rbp	#
	.cfi_def_cfa_offset 16
	.cfi_offset 6, -16
.LBB88:
.LBB86:
# main.cpp:47: }
	.loc 1 47 1 view .LVU126
	leaq	.LC1(%rip), %rdi	#, tmp82
# /usr/include/c++/11.1.0/iostream:74:   static ios_base::Init __ioinit;
	.file 5 "/usr/include/c++/11.1.0/iostream"
	.loc 5 74 25 view .LVU127
	leaq	_ZStL8__ioinit(%rip), %rbp	#, tmp83
# main.cpp:47: }
	.loc 1 47 1 view .LVU128
	call	__asan_before_dynamic_init@PLT	#
.LVL79:
# /usr/include/c++/11.1.0/iostream:74:   static ios_base::Init __ioinit;
	.loc 5 74 25 view .LVU129
	movq	%rbp, %rdi	# tmp83,
	call	_ZNSt8ios_base4InitC1Ev@PLT	#
.LVL80:
	movq	_ZNSt8ios_base4InitD1Ev@GOTPCREL(%rip), %rdi	#,
	movq	%rbp, %rsi	# tmp83,
	leaq	__dso_handle(%rip), %rdx	#, tmp84
	call	__cxa_atexit@PLT	#
.LVL81:
.LBE86:
.LBE88:
# main.cpp:47: }
	.loc 1 47 1 view .LVU130
	popq	%rbp	#
	.cfi_def_cfa_offset 8
.LBB89:
.LBB87:
# /usr/include/c++/11.1.0/iostream:74:   static ios_base::Init __ioinit;
	.loc 5 74 25 view .LVU131
	jmp	__asan_after_dynamic_init@PLT	#
.LVL82:
.LBE87:
.LBE89:
	.cfi_endproc
.LFE12733:
	.size	_GLOBAL__sub_I_main, .-_GLOBAL__sub_I_main
	.section	.init_array,"aw"
	.align 8
	.quad	_GLOBAL__sub_I_main
	.section	.data.rel.local,"aw"
	.align 32
	.type	.Lubsan_data1089, @object
	.size	.Lubsan_data1089, 24
.Lubsan_data1089:
# <anonymous>:
# __filename:
	.quad	.LC1
# __line:
	.long	44
# __column:
	.long	35
# <anonymous>:
	.quad	.Lubsan_type14
	.zero	40
	.align 32
	.type	.Lubsan_data1088, @object
	.size	.Lubsan_data1088, 24
.Lubsan_data1088:
# <anonymous>:
# __filename:
	.quad	.LC1
# __line:
	.long	43
# __column:
	.long	33
# <anonymous>:
	.quad	.Lubsan_type14
	.zero	40
	.data
	.align 32
	.type	.Lubsan_type14, @object
	.size	.Lubsan_type14, 10
.Lubsan_type14:
# __typekind:
	.value	0
# __typeinfo:
	.value	11
# __typename:
	.string	"'int'"
	.zero	54
	.section	.rodata
	.align 32
.LC2:
	.string	"/usr/include/c++/11.1.0/ostream"
	.zero	32
	.section	.data.rel,"aw"
	.align 32
	.type	.Lubsan_data1087, @object
	.size	.Lubsan_data1087, 40
.Lubsan_data1087:
# <anonymous>:
# __filename:
	.quad	.LC2
# __line:
	.long	704
# __column:
	.long	24
# <anonymous>:
	.quad	.Lubsan_type12
# <anonymous>:
	.quad	_ZTISo
# <anonymous>:
	.byte	4
	.zero	7
	.zero	56
	.section	.data.rel.local
	.align 32
	.type	.Lubsan_data1086, @object
	.size	.Lubsan_data1086, 32
.Lubsan_data1086:
# <anonymous>:
# __filename:
	.quad	.LC2
# __line:
	.long	704
# __column:
	.long	24
# <anonymous>:
	.quad	.Lubsan_type13
# <anonymous>:
	.byte	3
# <anonymous>:
	.byte	4
	.zero	6
	.zero	32
	.align 32
	.type	.Lubsan_data1085, @object
	.size	.Lubsan_data1085, 16
.Lubsan_data1085:
# <anonymous>:
# __filename:
	.quad	.LC2
# __line:
	.long	682
# __column:
	.long	39
	.zero	48
	.section	.data.rel
	.align 32
	.type	.Lubsan_data1084, @object
	.size	.Lubsan_data1084, 40
.Lubsan_data1084:
# <anonymous>:
# __filename:
	.quad	.LC2
# __line:
	.long	682
# __column:
	.long	39
# <anonymous>:
	.quad	.Lubsan_type9
# <anonymous>:
	.quad	_ZTISt9basic_iosIcSt11char_traitsIcEE
# <anonymous>:
	.byte	4
	.zero	7
	.zero	56
	.section	.data.rel.local
	.align 32
	.type	.Lubsan_data1083, @object
	.size	.Lubsan_data1083, 16
.Lubsan_data1083:
# <anonymous>:
# __filename:
	.quad	.LC2
# __line:
	.long	682
# __column:
	.long	39
	.zero	48
	.align 32
	.type	.Lubsan_data1082, @object
	.size	.Lubsan_data1082, 16
.Lubsan_data1082:
# <anonymous>:
# __filename:
	.quad	.LC2
# __line:
	.long	682
# __column:
	.long	39
	.zero	48
	.align 32
	.type	.Lubsan_data1081, @object
	.size	.Lubsan_data1081, 32
.Lubsan_data1081:
# <anonymous>:
# __filename:
	.quad	.LC2
# __line:
	.long	682
# __column:
	.long	39
# <anonymous>:
	.quad	.Lubsan_type8
# <anonymous>:
	.byte	3
# <anonymous>:
	.byte	4
	.zero	6
	.zero	32
	.align 32
	.type	.Lubsan_data1080, @object
	.size	.Lubsan_data1080, 16
.Lubsan_data1080:
# <anonymous>:
# __filename:
	.quad	.LC2
# __line:
	.long	682
# __column:
	.long	39
	.zero	48
	.align 32
	.type	.Lubsan_data1079, @object
	.size	.Lubsan_data1079, 32
.Lubsan_data1079:
# <anonymous>:
# __filename:
	.quad	.LC2
# __line:
	.long	682
# __column:
	.long	39
# <anonymous>:
	.quad	.Lubsan_type7
# <anonymous>:
	.byte	3
# <anonymous>:
	.byte	0
	.zero	6
	.zero	32
	.align 32
	.type	.Lubsan_data1078, @object
	.size	.Lubsan_data1078, 16
.Lubsan_data1078:
# <anonymous>:
# __filename:
	.quad	.LC2
# __line:
	.long	682
# __column:
	.long	39
	.zero	48
	.section	.data.rel
	.align 32
	.type	.Lubsan_data1077, @object
	.size	.Lubsan_data1077, 40
.Lubsan_data1077:
# <anonymous>:
# __filename:
	.quad	.LC1
# __line:
	.long	46
# __column:
	.long	24
# <anonymous>:
	.quad	.Lubsan_type12
# <anonymous>:
	.quad	_ZTISo
# <anonymous>:
	.byte	4
	.zero	7
	.zero	56
	.section	.data.rel.local
	.align 32
	.type	.Lubsan_data1076, @object
	.size	.Lubsan_data1076, 32
.Lubsan_data1076:
# <anonymous>:
# __filename:
	.quad	.LC1
# __line:
	.long	46
# __column:
	.long	24
# <anonymous>:
	.quad	.Lubsan_type13
# <anonymous>:
	.byte	3
# <anonymous>:
	.byte	4
	.zero	6
	.zero	32
	.data
	.align 32
	.type	.Lubsan_type13, @object
	.size	.Lubsan_type13, 27
.Lubsan_type13:
# __typekind:
	.value	-1
# __typeinfo:
	.value	0
# __typename:
	.string	"'struct basic_ostream'"
	.zero	37
	.section	.data.rel
	.align 32
	.type	.Lubsan_data1075, @object
	.size	.Lubsan_data1075, 40
.Lubsan_data1075:
# <anonymous>:
# __filename:
	.quad	.LC1
# __line:
	.long	46
# __column:
	.long	13
# <anonymous>:
	.quad	.Lubsan_type12
# <anonymous>:
	.quad	_ZTISo
# <anonymous>:
	.byte	4
	.zero	7
	.zero	56
	.data
	.align 32
	.type	.Lubsan_type12, @object
	.size	.Lubsan_type12, 20
.Lubsan_type12:
# __typekind:
	.value	-1
# __typeinfo:
	.value	0
# __typename:
	.string	"'basic_ostream'"
	.zero	44
	.section	.rodata
	.align 32
.LC3:
	.string	"/usr/include/c++/11.1.0/bits/basic_ios.h"
	.zero	55
	.section	.data.rel.local
	.align 32
	.type	.Lubsan_data1074, @object
	.size	.Lubsan_data1074, 16
.Lubsan_data1074:
# <anonymous>:
# __filename:
	.quad	.LC3
# __line:
	.long	138
# __column:
	.long	16
	.zero	48
	.align 32
	.type	.Lubsan_data1073, @object
	.size	.Lubsan_data1073, 32
.Lubsan_data1073:
# <anonymous>:
# __filename:
	.quad	.LC3
# __line:
	.long	138
# __column:
	.long	16
# <anonymous>:
	.quad	.Lubsan_type11
# <anonymous>:
	.byte	3
# <anonymous>:
	.byte	3
	.zero	6
	.zero	32
	.data
	.align 32
	.type	.Lubsan_type11, @object
	.size	.Lubsan_type11, 28
.Lubsan_type11:
# __typekind:
	.value	-1
# __typeinfo:
	.value	0
# __typename:
	.string	"'const struct ios_base'"
	.zero	36
	.section	.data.rel
	.align 32
	.type	.Lubsan_data1072, @object
	.size	.Lubsan_data1072, 40
.Lubsan_data1072:
# <anonymous>:
# __filename:
	.quad	.LC3
# __line:
	.long	138
# __column:
	.long	16
# <anonymous>:
	.quad	.Lubsan_type10
# <anonymous>:
	.quad	_ZTISt8ios_base
# <anonymous>:
	.byte	3
	.zero	7
	.zero	56
	.data
	.align 32
	.type	.Lubsan_type10, @object
	.size	.Lubsan_type10, 15
.Lubsan_type10:
# __typekind:
	.value	-1
# __typeinfo:
	.value	0
# __typename:
	.string	"'ios_base'"
	.zero	49
	.section	.data.rel.local
	.align 32
	.type	.Lubsan_data1071, @object
	.size	.Lubsan_data1071, 16
.Lubsan_data1071:
# <anonymous>:
# __filename:
	.quad	.LC1
# __line:
	.long	41
# __column:
	.long	19
	.zero	48
	.section	.data.rel
	.align 32
	.type	.Lubsan_data1070, @object
	.size	.Lubsan_data1070, 40
.Lubsan_data1070:
# <anonymous>:
# __filename:
	.quad	.LC1
# __line:
	.long	41
# __column:
	.long	19
# <anonymous>:
	.quad	.Lubsan_type9
# <anonymous>:
	.quad	_ZTISt9basic_iosIcSt11char_traitsIcEE
# <anonymous>:
	.byte	4
	.zero	7
	.zero	56
	.data
	.align 32
	.type	.Lubsan_type9, @object
	.size	.Lubsan_type9, 16
.Lubsan_type9:
# __typekind:
	.value	-1
# __typeinfo:
	.value	0
# __typename:
	.string	"'basic_ios'"
	.zero	48
	.section	.data.rel.local
	.align 32
	.type	.Lubsan_data1069, @object
	.size	.Lubsan_data1069, 16
.Lubsan_data1069:
# <anonymous>:
# __filename:
	.quad	.LC1
# __line:
	.long	41
# __column:
	.long	19
	.zero	48
	.align 32
	.type	.Lubsan_data1068, @object
	.size	.Lubsan_data1068, 16
.Lubsan_data1068:
# <anonymous>:
# __filename:
	.quad	.LC1
# __line:
	.long	41
# __column:
	.long	19
	.zero	48
	.align 32
	.type	.Lubsan_data1067, @object
	.size	.Lubsan_data1067, 32
.Lubsan_data1067:
# <anonymous>:
# __filename:
	.quad	.LC1
# __line:
	.long	41
# __column:
	.long	19
# <anonymous>:
	.quad	.Lubsan_type8
# <anonymous>:
	.byte	3
# <anonymous>:
	.byte	4
	.zero	6
	.zero	32
	.data
	.align 32
	.type	.Lubsan_type8, @object
	.size	.Lubsan_type8, 23
.Lubsan_type8:
# __typekind:
	.value	-1
# __typeinfo:
	.value	0
# __typename:
	.string	"'struct basic_ios'"
	.zero	41
	.section	.data.rel.local
	.align 32
	.type	.Lubsan_data1066, @object
	.size	.Lubsan_data1066, 16
.Lubsan_data1066:
# <anonymous>:
# __filename:
	.quad	.LC1
# __line:
	.long	41
# __column:
	.long	19
	.zero	48
	.align 32
	.type	.Lubsan_data1065, @object
	.size	.Lubsan_data1065, 32
.Lubsan_data1065:
# <anonymous>:
# __filename:
	.quad	.LC1
# __line:
	.long	41
# __column:
	.long	19
# <anonymous>:
	.quad	.Lubsan_type7
# <anonymous>:
	.byte	3
# <anonymous>:
	.byte	0
	.zero	6
	.zero	32
	.data
	.align 32
	.type	.Lubsan_type7, @object
	.size	.Lubsan_type7, 15
.Lubsan_type7:
# __typekind:
	.value	-1
# __typeinfo:
	.value	0
# __typename:
	.string	"'long int'"
	.zero	49
	.section	.data.rel.local
	.align 32
	.type	.Lubsan_data1064, @object
	.size	.Lubsan_data1064, 16
.Lubsan_data1064:
# <anonymous>:
# __filename:
	.quad	.LC1
# __line:
	.long	41
# __column:
	.long	19
	.zero	48
	.section	.data.rel
	.align 32
	.type	.Lubsan_data1063, @object
	.size	.Lubsan_data1063, 40
.Lubsan_data1063:
# <anonymous>:
# __filename:
	.quad	.LC1
# __line:
	.long	41
# __column:
	.long	19
# <anonymous>:
	.quad	.Lubsan_type5
# <anonymous>:
	.quad	_ZTISi
# <anonymous>:
	.byte	9
	.zero	7
	.zero	56
	.section	.data.rel.local
	.align 32
	.type	.Lubsan_data1062, @object
	.size	.Lubsan_data1062, 32
.Lubsan_data1062:
# <anonymous>:
# __filename:
	.quad	.LC1
# __line:
	.long	41
# __column:
	.long	19
# <anonymous>:
	.quad	.Lubsan_type6
# <anonymous>:
	.byte	3
# <anonymous>:
	.byte	3
	.zero	6
	.zero	32
	.data
	.align 32
	.type	.Lubsan_type6, @object
	.size	.Lubsan_type6, 28
.Lubsan_type6:
# __typekind:
	.value	-1
# __typeinfo:
	.value	0
# __typename:
	.string	"'struct __istream_type'"
	.zero	36
	.section	.data.rel
	.align 32
	.type	.Lubsan_data1061, @object
	.size	.Lubsan_data1061, 40
.Lubsan_data1061:
# <anonymous>:
# __filename:
	.quad	.LC1
# __line:
	.long	41
# __column:
	.long	19
# <anonymous>:
	.quad	.Lubsan_type5
# <anonymous>:
	.quad	_ZTISi
# <anonymous>:
	.byte	4
	.zero	7
	.zero	56
	.align 32
	.type	.Lubsan_data1060, @object
	.size	.Lubsan_data1060, 40
.Lubsan_data1060:
# <anonymous>:
# __filename:
	.quad	.LC1
# __line:
	.long	37
# __column:
	.long	12
# <anonymous>:
	.quad	.Lubsan_type5
# <anonymous>:
	.quad	_ZTISi
# <anonymous>:
	.byte	4
	.zero	7
	.zero	56
	.data
	.align 32
	.type	.Lubsan_type5, @object
	.size	.Lubsan_type5, 20
.Lubsan_type5:
# __typekind:
	.value	-1
# __typeinfo:
	.value	0
# __typename:
	.string	"'basic_istream'"
	.zero	44
	.bss
	.align 32
	.type	_ZStL8__ioinit, @object
	.size	_ZStL8__ioinit, 1
_ZStL8__ioinit:
	.zero	64
	.section	.rodata.str1.8,"aMS",@progbits,1
	.align 8
.LC4:
	.string	"/usr/include/c++/11.1.0/iostream"
	.section	.data.rel.local
	.align 16
	.type	.LASANLOC1, @object
	.size	.LASANLOC1, 16
.LASANLOC1:
# __filename:
	.quad	.LC4
# __line:
	.long	74
# __column:
	.long	25
	.section	.rodata.str1.1
.LC5:
	.string	"*.Lubsan_data1089"
.LC6:
	.string	"*.Lubsan_data1088"
.LC7:
	.string	"*.Lubsan_type14"
.LC8:
	.string	"*.Lubsan_data1087"
.LC9:
	.string	"*.Lubsan_data1086"
.LC10:
	.string	"*.Lubsan_data1085"
.LC11:
	.string	"*.Lubsan_data1084"
.LC12:
	.string	"*.Lubsan_data1083"
.LC13:
	.string	"*.Lubsan_data1082"
.LC14:
	.string	"*.Lubsan_data1081"
.LC15:
	.string	"*.Lubsan_data1080"
.LC16:
	.string	"*.Lubsan_data1079"
.LC17:
	.string	"*.Lubsan_data1078"
.LC18:
	.string	"*.Lubsan_data1077"
.LC19:
	.string	"*.Lubsan_data1076"
.LC20:
	.string	"*.Lubsan_type13"
.LC21:
	.string	"*.Lubsan_data1075"
.LC22:
	.string	"*.Lubsan_type12"
.LC23:
	.string	"*.Lubsan_data1074"
.LC24:
	.string	"*.Lubsan_data1073"
.LC25:
	.string	"*.Lubsan_type11"
.LC26:
	.string	"*.Lubsan_data1072"
.LC27:
	.string	"*.Lubsan_type10"
.LC28:
	.string	"*.Lubsan_data1071"
.LC29:
	.string	"*.Lubsan_data1070"
.LC30:
	.string	"*.Lubsan_type9"
.LC31:
	.string	"*.Lubsan_data1069"
.LC32:
	.string	"*.Lubsan_data1068"
.LC33:
	.string	"*.Lubsan_data1067"
.LC34:
	.string	"*.Lubsan_type8"
.LC35:
	.string	"*.Lubsan_data1066"
.LC36:
	.string	"*.Lubsan_data1065"
.LC37:
	.string	"*.Lubsan_type7"
.LC38:
	.string	"*.Lubsan_data1064"
.LC39:
	.string	"*.Lubsan_data1063"
.LC40:
	.string	"*.Lubsan_data1062"
.LC41:
	.string	"*.Lubsan_type6"
.LC42:
	.string	"*.Lubsan_data1061"
.LC43:
	.string	"*.Lubsan_data1060"
.LC44:
	.string	"*.Lubsan_type5"
.LC45:
	.string	"__ioinit"
.LC46:
	.string	"*.LC2"
.LC47:
	.string	"*.LC3"
	.section	.data.rel.local
	.align 32
	.type	.LASAN0, @object
	.size	.LASAN0, 2752
.LASAN0:
# __beg:
	.quad	.Lubsan_data1089
# __size:
	.quad	24
# __size_with_redzone:
	.quad	64
# __name:
	.quad	.LC5
# __module_name:
	.quad	.LC1
# __has_dynamic_init:
	.quad	0
# __location:
	.quad	0
# __odr_indicator:
	.quad	0
# __beg:
	.quad	.Lubsan_data1088
# __size:
	.quad	24
# __size_with_redzone:
	.quad	64
# __name:
	.quad	.LC6
# __module_name:
	.quad	.LC1
# __has_dynamic_init:
	.quad	0
# __location:
	.quad	0
# __odr_indicator:
	.quad	0
# __beg:
	.quad	.Lubsan_type14
# __size:
	.quad	10
# __size_with_redzone:
	.quad	64
# __name:
	.quad	.LC7
# __module_name:
	.quad	.LC1
# __has_dynamic_init:
	.quad	0
# __location:
	.quad	0
# __odr_indicator:
	.quad	0
# __beg:
	.quad	.Lubsan_data1087
# __size:
	.quad	40
# __size_with_redzone:
	.quad	96
# __name:
	.quad	.LC8
# __module_name:
	.quad	.LC1
# __has_dynamic_init:
	.quad	0
# __location:
	.quad	0
# __odr_indicator:
	.quad	0
# __beg:
	.quad	.Lubsan_data1086
# __size:
	.quad	32
# __size_with_redzone:
	.quad	64
# __name:
	.quad	.LC9
# __module_name:
	.quad	.LC1
# __has_dynamic_init:
	.quad	0
# __location:
	.quad	0
# __odr_indicator:
	.quad	0
# __beg:
	.quad	.Lubsan_data1085
# __size:
	.quad	16
# __size_with_redzone:
	.quad	64
# __name:
	.quad	.LC10
# __module_name:
	.quad	.LC1
# __has_dynamic_init:
	.quad	0
# __location:
	.quad	0
# __odr_indicator:
	.quad	0
# __beg:
	.quad	.Lubsan_data1084
# __size:
	.quad	40
# __size_with_redzone:
	.quad	96
# __name:
	.quad	.LC11
# __module_name:
	.quad	.LC1
# __has_dynamic_init:
	.quad	0
# __location:
	.quad	0
# __odr_indicator:
	.quad	0
# __beg:
	.quad	.Lubsan_data1083
# __size:
	.quad	16
# __size_with_redzone:
	.quad	64
# __name:
	.quad	.LC12
# __module_name:
	.quad	.LC1
# __has_dynamic_init:
	.quad	0
# __location:
	.quad	0
# __odr_indicator:
	.quad	0
# __beg:
	.quad	.Lubsan_data1082
# __size:
	.quad	16
# __size_with_redzone:
	.quad	64
# __name:
	.quad	.LC13
# __module_name:
	.quad	.LC1
# __has_dynamic_init:
	.quad	0
# __location:
	.quad	0
# __odr_indicator:
	.quad	0
# __beg:
	.quad	.Lubsan_data1081
# __size:
	.quad	32
# __size_with_redzone:
	.quad	64
# __name:
	.quad	.LC14
# __module_name:
	.quad	.LC1
# __has_dynamic_init:
	.quad	0
# __location:
	.quad	0
# __odr_indicator:
	.quad	0
# __beg:
	.quad	.Lubsan_data1080
# __size:
	.quad	16
# __size_with_redzone:
	.quad	64
# __name:
	.quad	.LC15
# __module_name:
	.quad	.LC1
# __has_dynamic_init:
	.quad	0
# __location:
	.quad	0
# __odr_indicator:
	.quad	0
# __beg:
	.quad	.Lubsan_data1079
# __size:
	.quad	32
# __size_with_redzone:
	.quad	64
# __name:
	.quad	.LC16
# __module_name:
	.quad	.LC1
# __has_dynamic_init:
	.quad	0
# __location:
	.quad	0
# __odr_indicator:
	.quad	0
# __beg:
	.quad	.Lubsan_data1078
# __size:
	.quad	16
# __size_with_redzone:
	.quad	64
# __name:
	.quad	.LC17
# __module_name:
	.quad	.LC1
# __has_dynamic_init:
	.quad	0
# __location:
	.quad	0
# __odr_indicator:
	.quad	0
# __beg:
	.quad	.Lubsan_data1077
# __size:
	.quad	40
# __size_with_redzone:
	.quad	96
# __name:
	.quad	.LC18
# __module_name:
	.quad	.LC1
# __has_dynamic_init:
	.quad	0
# __location:
	.quad	0
# __odr_indicator:
	.quad	0
# __beg:
	.quad	.Lubsan_data1076
# __size:
	.quad	32
# __size_with_redzone:
	.quad	64
# __name:
	.quad	.LC19
# __module_name:
	.quad	.LC1
# __has_dynamic_init:
	.quad	0
# __location:
	.quad	0
# __odr_indicator:
	.quad	0
# __beg:
	.quad	.Lubsan_type13
# __size:
	.quad	27
# __size_with_redzone:
	.quad	64
# __name:
	.quad	.LC20
# __module_name:
	.quad	.LC1
# __has_dynamic_init:
	.quad	0
# __location:
	.quad	0
# __odr_indicator:
	.quad	0
# __beg:
	.quad	.Lubsan_data1075
# __size:
	.quad	40
# __size_with_redzone:
	.quad	96
# __name:
	.quad	.LC21
# __module_name:
	.quad	.LC1
# __has_dynamic_init:
	.quad	0
# __location:
	.quad	0
# __odr_indicator:
	.quad	0
# __beg:
	.quad	.Lubsan_type12
# __size:
	.quad	20
# __size_with_redzone:
	.quad	64
# __name:
	.quad	.LC22
# __module_name:
	.quad	.LC1
# __has_dynamic_init:
	.quad	0
# __location:
	.quad	0
# __odr_indicator:
	.quad	0
# __beg:
	.quad	.Lubsan_data1074
# __size:
	.quad	16
# __size_with_redzone:
	.quad	64
# __name:
	.quad	.LC23
# __module_name:
	.quad	.LC1
# __has_dynamic_init:
	.quad	0
# __location:
	.quad	0
# __odr_indicator:
	.quad	0
# __beg:
	.quad	.Lubsan_data1073
# __size:
	.quad	32
# __size_with_redzone:
	.quad	64
# __name:
	.quad	.LC24
# __module_name:
	.quad	.LC1
# __has_dynamic_init:
	.quad	0
# __location:
	.quad	0
# __odr_indicator:
	.quad	0
# __beg:
	.quad	.Lubsan_type11
# __size:
	.quad	28
# __size_with_redzone:
	.quad	64
# __name:
	.quad	.LC25
# __module_name:
	.quad	.LC1
# __has_dynamic_init:
	.quad	0
# __location:
	.quad	0
# __odr_indicator:
	.quad	0
# __beg:
	.quad	.Lubsan_data1072
# __size:
	.quad	40
# __size_with_redzone:
	.quad	96
# __name:
	.quad	.LC26
# __module_name:
	.quad	.LC1
# __has_dynamic_init:
	.quad	0
# __location:
	.quad	0
# __odr_indicator:
	.quad	0
# __beg:
	.quad	.Lubsan_type10
# __size:
	.quad	15
# __size_with_redzone:
	.quad	64
# __name:
	.quad	.LC27
# __module_name:
	.quad	.LC1
# __has_dynamic_init:
	.quad	0
# __location:
	.quad	0
# __odr_indicator:
	.quad	0
# __beg:
	.quad	.Lubsan_data1071
# __size:
	.quad	16
# __size_with_redzone:
	.quad	64
# __name:
	.quad	.LC28
# __module_name:
	.quad	.LC1
# __has_dynamic_init:
	.quad	0
# __location:
	.quad	0
# __odr_indicator:
	.quad	0
# __beg:
	.quad	.Lubsan_data1070
# __size:
	.quad	40
# __size_with_redzone:
	.quad	96
# __name:
	.quad	.LC29
# __module_name:
	.quad	.LC1
# __has_dynamic_init:
	.quad	0
# __location:
	.quad	0
# __odr_indicator:
	.quad	0
# __beg:
	.quad	.Lubsan_type9
# __size:
	.quad	16
# __size_with_redzone:
	.quad	64
# __name:
	.quad	.LC30
# __module_name:
	.quad	.LC1
# __has_dynamic_init:
	.quad	0
# __location:
	.quad	0
# __odr_indicator:
	.quad	0
# __beg:
	.quad	.Lubsan_data1069
# __size:
	.quad	16
# __size_with_redzone:
	.quad	64
# __name:
	.quad	.LC31
# __module_name:
	.quad	.LC1
# __has_dynamic_init:
	.quad	0
# __location:
	.quad	0
# __odr_indicator:
	.quad	0
# __beg:
	.quad	.Lubsan_data1068
# __size:
	.quad	16
# __size_with_redzone:
	.quad	64
# __name:
	.quad	.LC32
# __module_name:
	.quad	.LC1
# __has_dynamic_init:
	.quad	0
# __location:
	.quad	0
# __odr_indicator:
	.quad	0
# __beg:
	.quad	.Lubsan_data1067
# __size:
	.quad	32
# __size_with_redzone:
	.quad	64
# __name:
	.quad	.LC33
# __module_name:
	.quad	.LC1
# __has_dynamic_init:
	.quad	0
# __location:
	.quad	0
# __odr_indicator:
	.quad	0
# __beg:
	.quad	.Lubsan_type8
# __size:
	.quad	23
# __size_with_redzone:
	.quad	64
# __name:
	.quad	.LC34
# __module_name:
	.quad	.LC1
# __has_dynamic_init:
	.quad	0
# __location:
	.quad	0
# __odr_indicator:
	.quad	0
# __beg:
	.quad	.Lubsan_data1066
# __size:
	.quad	16
# __size_with_redzone:
	.quad	64
# __name:
	.quad	.LC35
# __module_name:
	.quad	.LC1
# __has_dynamic_init:
	.quad	0
# __location:
	.quad	0
# __odr_indicator:
	.quad	0
# __beg:
	.quad	.Lubsan_data1065
# __size:
	.quad	32
# __size_with_redzone:
	.quad	64
# __name:
	.quad	.LC36
# __module_name:
	.quad	.LC1
# __has_dynamic_init:
	.quad	0
# __location:
	.quad	0
# __odr_indicator:
	.quad	0
# __beg:
	.quad	.Lubsan_type7
# __size:
	.quad	15
# __size_with_redzone:
	.quad	64
# __name:
	.quad	.LC37
# __module_name:
	.quad	.LC1
# __has_dynamic_init:
	.quad	0
# __location:
	.quad	0
# __odr_indicator:
	.quad	0
# __beg:
	.quad	.Lubsan_data1064
# __size:
	.quad	16
# __size_with_redzone:
	.quad	64
# __name:
	.quad	.LC38
# __module_name:
	.quad	.LC1
# __has_dynamic_init:
	.quad	0
# __location:
	.quad	0
# __odr_indicator:
	.quad	0
# __beg:
	.quad	.Lubsan_data1063
# __size:
	.quad	40
# __size_with_redzone:
	.quad	96
# __name:
	.quad	.LC39
# __module_name:
	.quad	.LC1
# __has_dynamic_init:
	.quad	0
# __location:
	.quad	0
# __odr_indicator:
	.quad	0
# __beg:
	.quad	.Lubsan_data1062
# __size:
	.quad	32
# __size_with_redzone:
	.quad	64
# __name:
	.quad	.LC40
# __module_name:
	.quad	.LC1
# __has_dynamic_init:
	.quad	0
# __location:
	.quad	0
# __odr_indicator:
	.quad	0
# __beg:
	.quad	.Lubsan_type6
# __size:
	.quad	28
# __size_with_redzone:
	.quad	64
# __name:
	.quad	.LC41
# __module_name:
	.quad	.LC1
# __has_dynamic_init:
	.quad	0
# __location:
	.quad	0
# __odr_indicator:
	.quad	0
# __beg:
	.quad	.Lubsan_data1061
# __size:
	.quad	40
# __size_with_redzone:
	.quad	96
# __name:
	.quad	.LC42
# __module_name:
	.quad	.LC1
# __has_dynamic_init:
	.quad	0
# __location:
	.quad	0
# __odr_indicator:
	.quad	0
# __beg:
	.quad	.Lubsan_data1060
# __size:
	.quad	40
# __size_with_redzone:
	.quad	96
# __name:
	.quad	.LC43
# __module_name:
	.quad	.LC1
# __has_dynamic_init:
	.quad	0
# __location:
	.quad	0
# __odr_indicator:
	.quad	0
# __beg:
	.quad	.Lubsan_type5
# __size:
	.quad	20
# __size_with_redzone:
	.quad	64
# __name:
	.quad	.LC44
# __module_name:
	.quad	.LC1
# __has_dynamic_init:
	.quad	0
# __location:
	.quad	0
# __odr_indicator:
	.quad	0
# __beg:
	.quad	_ZStL8__ioinit
# __size:
	.quad	1
# __size_with_redzone:
	.quad	64
# __name:
	.quad	.LC45
# __module_name:
	.quad	.LC1
# __has_dynamic_init:
	.quad	1
# __location:
	.quad	.LASANLOC1
# __odr_indicator:
	.quad	0
# __beg:
	.quad	.LC2
# __size:
	.quad	32
# __size_with_redzone:
	.quad	64
# __name:
	.quad	.LC46
# __module_name:
	.quad	.LC1
# __has_dynamic_init:
	.quad	0
# __location:
	.quad	0
# __odr_indicator:
	.quad	0
# __beg:
	.quad	.LC3
# __size:
	.quad	41
# __size_with_redzone:
	.quad	96
# __name:
	.quad	.LC47
# __module_name:
	.quad	.LC1
# __has_dynamic_init:
	.quad	0
# __location:
	.quad	0
# __odr_indicator:
	.quad	0
	.section	.text.exit,"ax",@progbits
	.p2align 4
	.type	_sub_D_00099_0, @function
_sub_D_00099_0:
.LFB12736:
	.cfi_startproc
	movl	$43, %esi	#,
	leaq	.LASAN0(%rip), %rdi	#, tmp82
	jmp	__asan_unregister_globals@PLT	#
	.cfi_endproc
.LFE12736:
	.size	_sub_D_00099_0, .-_sub_D_00099_0
	.section	.fini_array.00099,"aw"
	.align 8
	.quad	_sub_D_00099_0
	.section	.text.startup
	.p2align 4
	.type	_sub_I_00099_1, @function
_sub_I_00099_1:
.LFB12737:
	.cfi_startproc
	subq	$8, %rsp	#,
	.cfi_def_cfa_offset 16
	call	__asan_init@PLT	#
	call	__asan_version_mismatch_check_v8@PLT	#
	movl	$43, %esi	#,
	leaq	.LASAN0(%rip), %rdi	#, tmp82
	addq	$8, %rsp	#,
	.cfi_def_cfa_offset 8
	jmp	__asan_register_globals@PLT	#
	.cfi_endproc
.LFE12737:
	.size	_sub_I_00099_1, .-_sub_I_00099_1
	.section	.init_array.00099,"aw"
	.align 8
	.quad	_sub_I_00099_1
	.text
.Letext0:
	.file 6 "/usr/include/bits/types.h"
	.file 7 "/usr/include/locale.h"
	.file 8 "/usr/include/c++/11.1.0/clocale"
	.file 9 "/usr/include/c++/11.1.0/cmath"
	.file 10 "/usr/include/c++/11.1.0/type_traits"
	.file 11 "/usr/include/c++/11.1.0/x86_64-pc-linux-gnu/bits/c++config.h"
	.file 12 "/usr/include/c++/11.1.0/csetjmp"
	.file 13 "/usr/include/c++/11.1.0/csignal"
	.file 14 "/usr/include/c++/11.1.0/cstdarg"
	.file 15 "/usr/include/c++/11.1.0/cstddef"
	.file 16 "/usr/include/c++/11.1.0/cstdio"
	.file 17 "/usr/include/c++/11.1.0/cstdlib"
	.file 18 "/usr/include/c++/11.1.0/cstring"
	.file 19 "/usr/include/c++/11.1.0/ctime"
	.file 20 "/usr/include/c++/11.1.0/cwchar"
	.file 21 "/usr/include/c++/11.1.0/cwctype"
	.file 22 "/usr/include/c++/11.1.0/bits/exception_ptr.h"
	.file 23 "/usr/include/c++/11.1.0/bits/char_traits.h"
	.file 24 "/usr/include/c++/11.1.0/cstdint"
	.file 25 "/usr/include/c++/11.1.0/bits/ostream.tcc"
	.file 26 "/usr/include/c++/11.1.0/istream"
	.file 27 "/usr/include/c++/11.1.0/bits/locale_facets.h"
	.file 28 "/usr/include/c++/11.1.0/fenv.h"
	.file 29 "/usr/include/c++/11.1.0/cfenv"
	.file 30 "/usr/include/c++/11.1.0/cinttypes"
	.file 31 "/usr/include/c++/11.1.0/cuchar"
	.file 32 "/usr/include/c++/11.1.0/bits/stl_iterator.h"
	.file 33 "/usr/include/c++/11.1.0/bits/regex_automaton.h"
	.file 34 "/usr/include/c++/11.1.0/bits/basic_string.h"
	.file 35 "/usr/include/c++/11.1.0/functional"
	.file 36 "/usr/include/c++/11.1.0/iosfwd"
	.file 37 "/usr/include/c++/11.1.0/bits/shared_ptr_base.h"
	.file 38 "/usr/include/c++/11.1.0/bits/atomic_base.h"
	.file 39 "/usr/include/c++/11.1.0/chrono"
	.file 40 "/usr/include/c++/11.1.0/system_error"
	.file 41 "/usr/include/c++/11.1.0/bits/fs_fwd.h"
	.file 42 "/usr/include/c++/11.1.0/bits/fs_path.h"
	.file 43 "/usr/include/c++/11.1.0/bits/regex_constants.h"
	.file 44 "/usr/include/c++/11.1.0/bits/regex_error.h"
	.file 45 "/usr/include/c++/11.1.0/vector"
	.file 46 "/usr/include/c++/11.1.0/string"
	.file 47 "/usr/include/c++/11.1.0/bits/predefined_ops.h"
	.file 48 "/usr/include/c++/11.1.0/ext/concurrence.h"
	.file 49 "/usr/include/math.h"
	.file 50 "/usr/lib/gcc/x86_64-pc-linux-gnu/11.1.0/include/stddef.h"
	.file 51 "/usr/include/stdlib.h"
	.file 52 "/usr/include/bits/types/clock_t.h"
	.file 53 "/usr/include/bits/types/time_t.h"
	.file 54 "/usr/include/bits/stdint-intn.h"
	.file 55 "/usr/include/bits/types/__sigset_t.h"
	.file 56 "/usr/include/bits/types/struct_timespec.h"
	.file 57 "/usr/include/c++/11.1.0/debug/helper_functions.h"
	.file 58 "/usr/include/c++/11.1.0/debug/debug.h"
	.file 59 "/usr/include/c++/11.1.0/debug/formatter.h"
	.file 60 "/usr/include/bits/setjmp.h"
	.file 61 "/usr/include/bits/types/struct___jmp_buf_tag.h"
	.file 62 "/usr/include/setjmp.h"
	.file 63 "/usr/include/bits/setjmp2.h"
	.file 64 "/usr/include/bits/types/sig_atomic_t.h"
	.file 65 "/usr/include/signal.h"
	.file 66 "/usr/lib/gcc/x86_64-pc-linux-gnu/11.1.0/include/stdarg.h"
	.file 67 "<built-in>"
	.file 68 "/usr/include/bits/types/__mbstate_t.h"
	.file 69 "/usr/include/bits/types/__fpos_t.h"
	.file 70 "/usr/include/bits/types/__FILE.h"
	.file 71 "/usr/include/bits/types/struct_FILE.h"
	.file 72 "/usr/include/bits/types/FILE.h"
	.file 73 "/usr/include/stdio.h"
	.file 74 "/usr/include/bits/stdio2.h"
	.file 75 "/usr/include/bits/stdio.h"
	.file 76 "/usr/include/bits/stdlib-float.h"
	.file 77 "/usr/include/bits/stdlib-bsearch.h"
	.file 78 "/usr/include/bits/stdlib.h"
	.file 79 "/usr/include/string.h"
	.file 80 "/usr/include/bits/types/struct_tm.h"
	.file 81 "/usr/include/time.h"
	.file 82 "/usr/include/bits/types/wint_t.h"
	.file 83 "/usr/include/bits/types/mbstate_t.h"
	.file 84 "/usr/include/wchar.h"
	.file 85 "/usr/include/bits/wchar2.h"
	.file 86 "/usr/include/bits/wctype-wchar.h"
	.file 87 "/usr/include/wctype.h"
	.file 88 "/usr/include/bits/stdint-uintn.h"
	.file 89 "/usr/include/stdint.h"
	.file 90 "/usr/include/bits/fenv.h"
	.file 91 "/usr/include/inttypes.h"
	.file 92 "/usr/include/uchar.h"
	.file 93 "/usr/include/c++/11.1.0/pstl/execution_defs.h"
	.file 94 "/usr/include/c++/11.1.0/string_view"
	.file 95 "/usr/include/c++/11.1.0/future"
	.file 96 "/usr/include/c++/11.1.0/bits/functexcept.h"
	.section	.note.GNU-stack,"",@progbits
